target datalayout = "e-m:e-p270:32:32-p271:32:32-p272:64:64-i64:64-i128:128-f80:128-n8:16:32:64-S128"
target triple = "x86_64-pc-linux-gnu"

%struct.vars = type { ptr, ptr, i32, i64, ptr, ptr, ptr, ptr, ptr, i32, ptr, ptr, ptr, ptr, %struct.smalldfa, %struct.smalldfa }
%struct.smalldfa = type { %struct.dfa, [40 x %struct.sset], [41 x i32], [600 x ptr], [600 x %struct.arcp] }
%struct.dfa = type { i32, i32, i32, i32, i32, ptr, ptr, ptr, ptr, ptr, ptr, ptr, ptr, ptr, ptr, i32, i16, i16, i8, i8 }
%struct.sset = type { ptr, i32, i32, %struct.arcp, ptr, ptr, ptr }
%struct.arcp = type { ptr, i16 }
%struct.pg_regmatch_t = type { i64, i64 }
%struct.cnfa = type { i32, i32, i32, i32, i32, [2 x i16], [2 x i16], ptr, ptr, ptr, i32, i32 }
%struct.subre = type { i8, i8, i8, i32, i32, i32, i16, i16, ptr, ptr, ptr, ptr, %struct.cnfa, ptr }

; Function Attrs: nounwind uwtable
define internal void @zaptreesubs(ptr noundef %0, ptr noundef %1) #0 {
  %3 = alloca ptr, align 8
  %4 = alloca ptr, align 8
  %5 = alloca i32, align 4
  %6 = alloca ptr, align 8
  store ptr %0, ptr %3, align 8
  store ptr %1, ptr %4, align 8
  call void @llvm.lifetime.start.p0(i64 4, ptr %5) #7
  %7 = load ptr, ptr %4, align 8
  %8 = getelementptr inbounds nuw %struct.subre, ptr %7, i32 0, i32 4
  %9 = load i32, ptr %8, align 8
  store i32 %9, ptr %5, align 4
  call void @llvm.lifetime.start.p0(i64 8, ptr %6) #7
  %10 = load i32, ptr %5, align 4
  %11 = icmp sgt i32 %10, 0
  br i1 %11, label %12, label %35

12:                                               ; preds = %2
  %13 = load i32, ptr %5, align 4
  %14 = sext i32 %13 to i64
  %15 = load ptr, ptr %3, align 8
  %16 = getelementptr inbounds nuw %struct.vars, ptr %15, i32 0, i32 3
  %17 = load i64, ptr %16, align 8
  %18 = icmp ult i64 %14, %17
  br i1 %18, label %19, label %34

19:                                               ; preds = %12
  %20 = load ptr, ptr %3, align 8
  %21 = getelementptr inbounds nuw %struct.vars, ptr %20, i32 0, i32 4
  %22 = load ptr, ptr %21, align 8
  %23 = load i32, ptr %5, align 4
  %24 = sext i32 %23 to i64
  %25 = getelementptr inbounds %struct.pg_regmatch_t, ptr %22, i64 %24
  %26 = getelementptr inbounds nuw %struct.pg_regmatch_t, ptr %25, i32 0, i32 0
  store i64 -1, ptr %26, align 8
  %27 = load ptr, ptr %3, align 8
  %28 = getelementptr inbounds nuw %struct.vars, ptr %27, i32 0, i32 4
  %29 = load ptr, ptr %28, align 8
  %30 = load i32, ptr %5, align 4
  %31 = sext i32 %30 to i64
  %32 = getelementptr inbounds %struct.pg_regmatch_t, ptr %29, i64 %31
  %33 = getelementptr inbounds nuw %struct.pg_regmatch_t, ptr %32, i32 0, i32 1
  store i64 -1, ptr %33, align 8
  br label %34

34:                                               ; preds = %19, %12
  br label %35

35:                                               ; preds = %34, %2
  %36 = load ptr, ptr %4, align 8
  %37 = getelementptr inbounds nuw %struct.subre, ptr %36, i32 0, i32 8
  %38 = load ptr, ptr %37, align 8
  store ptr %38, ptr %6, align 8
  br label %39

39:                                               ; preds = %45, %35
  %40 = load ptr, ptr %6, align 8
  %41 = icmp ne ptr %40, null
  br i1 %41, label %42, label %49

42:                                               ; preds = %39
  %43 = load ptr, ptr %3, align 8
  %44 = load ptr, ptr %6, align 8
  call void @zaptreesubs(ptr noundef %43, ptr noundef %44)
  br label %45

45:                                               ; preds = %42
  %46 = load ptr, ptr %6, align 8
  %47 = getelementptr inbounds nuw %struct.subre, ptr %46, i32 0, i32 9
  %48 = load ptr, ptr %47, align 8
  store ptr %48, ptr %6, align 8
  br label %39, !llvm.loop !45

49:                                               ; preds = %39
  call void @llvm.lifetime.end.p0(i64 8, ptr %6) #7
  call void @llvm.lifetime.end.p0(i64 4, ptr %5) #7
  ret void
}