; Function Attrs: nofree nosync nounwind memory(readwrite, inaccessiblemem: none) uwtable
define internal fastcc void @zaptreesubs(ptr noundef nonnull readonly captures(none) %0, ptr noundef readonly captures(none) %1) unnamed_addr #6 {
  %3 = getelementptr inbounds nuw i8, ptr %1, i64 8
  %4 = load i32, ptr %3, align 8
  %5 = icmp sgt i32 %4, 0
  br i1 %5, label %6, label %17

6:                                                ; preds = %2
  %7 = zext nneg i32 %4 to i64
  %8 = getelementptr inbounds nuw i8, ptr %0, i64 24
  %9 = load i64, ptr %8, align 8
  %10 = icmp ugt i64 %9, %7
  br i1 %10, label %11, label %17

11:                                               ; preds = %6
  %12 = getelementptr inbounds nuw i8, ptr %0, i64 32
  %13 = load ptr, ptr %12, align 8
  %14 = getelementptr inbounds nuw %struct.pg_regmatch_t, ptr %13, i64 %7
  store i64 -1, ptr %14, align 8
  %15 = load ptr, ptr %12, align 8
  %16 = getelementptr inbounds nuw %struct.pg_regmatch_t, ptr %15, i64 %7, i32 1
  store i64 -1, ptr %16, align 8
  br label %17

17:                                               ; preds = %6, %11, %2
  %18 = getelementptr inbounds nuw i8, ptr %1, i64 24
  %.014 = load ptr, ptr %18, align 8
  %.not15 = icmp eq ptr %.014, null
  br i1 %.not15, label %._crit_edge, label %.lr.ph

.lr.ph:                                           ; preds = %17, %.lr.ph
  %.016 = phi ptr [ %.0, %.lr.ph ], [ %.014, %17 ]
  tail call fastcc void @zaptreesubs(ptr noundef %0, ptr noundef nonnull %.016)
  %19 = getelementptr inbounds nuw i8, ptr %.016, i64 32
  %.0 = load ptr, ptr %19, align 8
  %.not = icmp eq ptr %.0, null
  br i1 %.not, label %._crit_edge, label %.lr.ph, !llvm.loop !45

._crit_edge:                                      ; preds = %.lr.ph, %17
  ret void
}